target datalayout = "e-m:e-p270:32:32-p271:32:32-p272:64:64-i64:64-i128:128-f80:128-n8:16:32:64-S128"
target triple = "x86_64-pc-linux-gnu"

@blf_parse_xml_port.name_magic = internal constant [6 x i8] c"name=\00", align 1
@blf_parse_xml_port.hwchannel_magic = internal constant [11 x i8] c"hwchannel=\00", align 1
@blf_parse_xml_port.simulated_magic = internal constant [11 x i8] c"simulated=\00", align 1
@.str = private unnamed_addr constant [2 x i8] c";\00", align 1

; Function Attrs: alwaysinline nounwind
define internal ptr @memcpy.inline(ptr noalias %0, ptr noalias %1, i64 %2) #4 {
  %4 = alloca ptr, align 8
  %5 = alloca ptr, align 8
  %6 = alloca i64, align 8
  store ptr %0, ptr %4, align 8
  store ptr %1, ptr %5, align 8
  store i64 %2, ptr %6, align 8
  %7 = load ptr, ptr %4, align 8
  %8 = load ptr, ptr %5, align 8
  %9 = load i64, ptr %6, align 8
  %10 = load ptr, ptr %4, align 8
  %11 = call i64 @llvm.objectsize.i64.p0(ptr %10, i1 false, i1 true, i1 true)
  %12 = call ptr @__memcpy_chk(ptr noundef %7, ptr noundef %8, i64 noundef %9, i64 noundef %11) #13
  ret ptr %12
}

; Function Attrs: null_pointer_is_valid sspstrong uwtable
define hidden zeroext i1 @blf_parse_xml_port(ptr noundef %0, ptr noundef %1, ptr noundef %2, ptr noundef %3, ptr noundef %4) #2 {
  %6 = alloca i1, align 1
  %7 = alloca ptr, align 8
  %8 = alloca ptr, align 8
  %9 = alloca ptr, align 8
  %10 = alloca ptr, align 8
  %11 = alloca ptr, align 8
  %12 = alloca ptr, align 8
  %13 = alloca i64, align 8
  %14 = alloca ptr, align 8
  %15 = alloca ptr, align 8
  %16 = alloca i32, align 4
  %17 = alloca i32, align 4
  store ptr %0, ptr %7, align 8
  store ptr %1, ptr %8, align 8
  store ptr %2, ptr %9, align 8
  store ptr %3, ptr %10, align 8
  store ptr %4, ptr %11, align 8
  call void @llvm.lifetime.start.p0(i64 8, ptr %12) #13
  call void @llvm.lifetime.start.p0(i64 8, ptr %13) #13
  call void @llvm.lifetime.start.p0(i64 8, ptr %14) #13
  call void @llvm.lifetime.start.p0(i64 8, ptr %15) #13
  %18 = load ptr, ptr %7, align 8
  %19 = icmp eq ptr %18, null
  br i1 %19, label %30, label %20

20:                                               ; preds = %5
  %21 = load ptr, ptr %8, align 8
  %22 = icmp eq ptr %21, null
  br i1 %22, label %30, label %23

23:                                               ; preds = %20
  %24 = load ptr, ptr %9, align 8
  %25 = icmp eq ptr %24, null
  br i1 %25, label %30, label %26

26:                                               ; preds = %23
  %27 = load ptr, ptr %8, align 8
  %28 = load ptr, ptr %7, align 8
  %29 = icmp ule ptr %27, %28
  br i1 %29, label %30, label %31

30:                                               ; preds = %26, %23, %20, %5
  store i1 false, ptr %6, align 1
  store i32 1, ptr %16, align 4
  br label %131

31:                                               ; preds = %26
  %32 = load ptr, ptr %8, align 8
  %33 = load ptr, ptr %7, align 8
  %34 = ptrtoint ptr %32 to i64
  %35 = ptrtoint ptr %33 to i64
  %36 = sub i64 %34, %35
  store i64 %36, ptr %13, align 8
  %37 = load i64, ptr %13, align 8
  %38 = add i64 %37, 1
  %39 = call noalias ptr @g_try_malloc(i64 noundef %38) #14
  store ptr %39, ptr %12, align 8
  %40 = load ptr, ptr %12, align 8
  %41 = icmp eq ptr %40, null
  br i1 %41, label %42, label %46

42:                                               ; preds = %31
  br label %43

43:                                               ; preds = %42
  br label %44

44:                                               ; preds = %43
  br label %45

45:                                               ; preds = %44
  store i1 false, ptr %6, align 1
  store i32 1, ptr %16, align 4
  br label %131

46:                                               ; preds = %31
  %47 = load ptr, ptr %12, align 8
  %48 = load ptr, ptr %7, align 8
  %49 = load i64, ptr %13, align 8
  %50 = call ptr @memcpy.inline(ptr noundef %47, ptr noundef %48, i64 noundef %49) #13
  %51 = load ptr, ptr %12, align 8
  %52 = load i64, ptr %13, align 8
  %53 = getelementptr i8, ptr %51, i64 %52
  store i8 0, ptr %53, align 1
  %54 = load ptr, ptr %12, align 8
  %55 = call ptr @g_strsplit_set(ptr noundef %54, ptr noundef @.str, i32 noundef -1)
  store ptr %55, ptr %14, align 8
  %56 = load ptr, ptr %12, align 8
  call void @g_free(ptr noundef %56)
  %57 = load ptr, ptr %14, align 8
  %58 = icmp eq ptr %57, null
  br i1 %58, label %59, label %63

59:                                               ; preds = %46
  br label %60

60:                                               ; preds = %59
  br label %61

61:                                               ; preds = %60
  br label %62

62:                                               ; preds = %61
  store i1 false, ptr %6, align 1
  store i32 1, ptr %16, align 4
  br label %131

63:                                               ; preds = %46
  %64 = load ptr, ptr %9, align 8
  store ptr null, ptr %64, align 8
  %65 = load ptr, ptr %10, align 8
  store i16 -1, ptr %65, align 2
  %66 = load ptr, ptr %11, align 8
  store i8 0, ptr %66, align 1
  call void @llvm.lifetime.start.p0(i64 4, ptr %17) #13
  store i32 0, ptr %17, align 4
  br label %67

67:                                               ; preds = %126, %63
  %68 = load ptr, ptr %14, align 8
  %69 = load i32, ptr %17, align 4
  %70 = sext i32 %69 to i64
  %71 = getelementptr ptr, ptr %68, i64 %70
  %72 = load ptr, ptr %71, align 8
  %73 = icmp ne ptr %72, null
  br i1 %73, label %75, label %74

74:                                               ; preds = %67
  store i32 6, ptr %16, align 4
  call void @llvm.lifetime.end.p0(i64 4, ptr %17) #13
  br label %129

75:                                               ; preds = %67
  %76 = load ptr, ptr %14, align 8
  %77 = load i32, ptr %17, align 4
  %78 = sext i32 %77 to i64
  %79 = getelementptr ptr, ptr %76, i64 %78
  %80 = load ptr, ptr %79, align 8
  store ptr %80, ptr %15, align 8
  %81 = load ptr, ptr %15, align 8
  %82 = call i32 @strncmp(ptr noundef %81, ptr noundef @blf_parse_xml_port.name_magic, i64 noundef 5) #15
  %83 = icmp eq i32 %82, 0
  br i1 %83, label %84, label %94

84:                                               ; preds = %75
  %85 = load ptr, ptr %9, align 8
  %86 = load ptr, ptr %85, align 8
  %87 = icmp eq ptr %86, null
  br i1 %87, label %88, label %93

88:                                               ; preds = %84
  %89 = load ptr, ptr %15, align 8
  %90 = getelementptr i8, ptr %89, i64 5
  %91 = call noalias ptr @wmem_strdup(ptr noundef null, ptr noundef %90)
  %92 = load ptr, ptr %9, align 8
  store ptr %91, ptr %92, align 8
  br label %93

93:                                               ; preds = %88, %84
  br label %125

94:                                               ; preds = %75
  %95 = load ptr, ptr %15, align 8
  %96 = call i32 @strncmp(ptr noundef %95, ptr noundef @blf_parse_xml_port.hwchannel_magic, i64 noundef 10) #15
  %97 = icmp eq i32 %96, 0
  br i1 %97, label %98, label %106

98:                                               ; preds = %94
  %99 = load ptr, ptr %15, align 8
  %100 = getelementptr i8, ptr %99, i64 10
  %101 = load ptr, ptr %10, align 8
  %102 = call zeroext i1 @ws_strtou16(ptr noundef %100, ptr noundef null, ptr noundef %101)
  br i1 %102, label %105, label %103

103:                                              ; preds = %98
  %104 = load ptr, ptr %10, align 8
  store i16 -1, ptr %104, align 2
  br label %105

105:                                              ; preds = %103, %98
  br label %124

106:                                              ; preds = %94
  %107 = load ptr, ptr %15, align 8
  %108 = call i32 @strncmp(ptr noundef %107, ptr noundef @blf_parse_xml_port.simulated_magic, i64 noundef 10) #15
  %109 = icmp eq i32 %108, 0
  br i1 %109, label %110, label %123

110:                                              ; preds = %106
  %111 = load ptr, ptr %15, align 8
  %112 = call i64 @strlen(ptr noundef %111) #15
  %113 = icmp ugt i64 %112, 10
  br i1 %113, label %114, label %122

114:                                              ; preds = %110
  %115 = load ptr, ptr %15, align 8
  %116 = getelementptr i8, ptr %115, i64 10
  %117 = load i8, ptr %116, align 1
  %118 = sext i8 %117 to i32
  %119 = icmp ne i32 %118, 48
  br i1 %119, label %120, label %122

120:                                              ; preds = %114
  %121 = load ptr, ptr %11, align 8
  store i8 1, ptr %121, align 1
  br label %122

122:                                              ; preds = %120, %114, %110
  br label %123

123:                                              ; preds = %122, %106
  br label %124

124:                                              ; preds = %123, %105
  br label %125

125:                                              ; preds = %124, %93
  br label %126

126:                                              ; preds = %125
  %127 = load i32, ptr %17, align 4
  %128 = add i32 %127, 1
  store i32 %128, ptr %17, align 4
  br label %67, !llvm.loop !6

129:                                              ; preds = %74
  %130 = load ptr, ptr %14, align 8
  call void @g_strfreev(ptr noundef %130)
  store i1 true, ptr %6, align 1
  store i32 1, ptr %16, align 4
  br label %131

131:                                              ; preds = %129, %62, %45, %30
  call void @llvm.lifetime.end.p0(i64 8, ptr %15) #13
  call void @llvm.lifetime.end.p0(i64 8, ptr %14) #13
  call void @llvm.lifetime.end.p0(i64 8, ptr %13) #13
  call void @llvm.lifetime.end.p0(i64 8, ptr %12) #13
  %132 = load i1, ptr %6, align 1
  ret i1 %132
}