; Function Attrs: null_pointer_is_valid sspstrong uwtable
define hidden noundef zeroext i1 @blf_parse_xml_port(ptr noundef %0, ptr noundef %1, ptr noundef captures(address_is_null) %2, ptr noundef %3, ptr noundef writeonly captures(none) %4) local_unnamed_addr #2 {
  %6 = icmp ne ptr %0, null
  %7 = icmp ne ptr %1, null
  %or.cond.not55 = and i1 %6, %7
  %8 = icmp ne ptr %2, null
  %or.cond3.not52 = and i1 %or.cond.not55, %8
  %.not = icmp ugt ptr %1, %0
  %or.cond50 = and i1 %.not, %or.cond3.not52
  br i1 %or.cond50, label %9, label %55

9:                                                ; preds = %5
  %10 = ptrtoint ptr %1 to i64
  %11 = ptrtoint ptr %0 to i64
  %12 = sub i64 %10, %11
  %13 = add i64 %12, 1
  %14 = tail call noalias ptr @g_try_malloc(i64 noundef %13) #15
  %15 = icmp eq ptr %14, null
  br i1 %15, label %55, label %16

16:                                               ; preds = %9
  %17 = icmp ne i64 %13, -1
  tail call void @llvm.assume(i1 %17)
  %18 = tail call ptr @__memcpy_chk(ptr noundef nonnull %14, ptr noundef nonnull %0, i64 noundef %12, i64 noundef %13) #14, !alias.scope !14
  %19 = getelementptr i8, ptr %14, i64 %12
  store i8 0, ptr %19, align 1
  %20 = tail call ptr @g_strsplit_set(ptr noundef nonnull %14, ptr noundef nonnull @.str, i32 noundef -1)
  tail call void @g_free(ptr noundef nonnull %14)
  %21 = icmp eq ptr %20, null
  br i1 %21, label %55, label %22

22:                                               ; preds = %16
  store ptr null, ptr %2, align 8
  store i16 -1, ptr %3, align 2
  store i8 0, ptr %4, align 1
  %23 = load ptr, ptr %20, align 8
  %.not4856 = icmp eq ptr %23, null
  br i1 %.not4856, label %._crit_edge, label %.lr.ph

._crit_edge:                                      ; preds = %50, %22
  tail call void @g_strfreev(ptr noundef nonnull %20)
  br label %55

.lr.ph:                                           ; preds = %22, %50
  %24 = phi ptr [ %54, %50 ], [ %23, %22 ]
  %.057 = phi i32 [ %51, %50 ], [ 0, %22 ]
  %25 = tail call i32 @strncmp(ptr noundef nonnull dereferenceable(1) %24, ptr noundef nonnull dereferenceable(6) @blf_parse_xml_port.name_magic, i64 noundef 5) #16
  %26 = icmp eq i32 %25, 0
  br i1 %26, label %27, label %33

27:                                               ; preds = %.lr.ph
  %28 = load ptr, ptr %2, align 8
  %29 = icmp eq ptr %28, null
  br i1 %29, label %30, label %50

30:                                               ; preds = %27
  %31 = getelementptr i8, ptr %24, i64 5
  %32 = tail call noalias ptr @wmem_strdup(ptr noundef null, ptr noundef %31)
  store ptr %32, ptr %2, align 8
  br label %50

33:                                               ; preds = %.lr.ph
  %34 = tail call i32 @strncmp(ptr noundef nonnull dereferenceable(1) %24, ptr noundef nonnull dereferenceable(11) @blf_parse_xml_port.hwchannel_magic, i64 noundef 10) #16
  %35 = icmp eq i32 %34, 0
  br i1 %35, label %36, label %40

36:                                               ; preds = %33
  %37 = getelementptr i8, ptr %24, i64 10
  %38 = tail call zeroext i1 @ws_strtou16(ptr noundef %37, ptr noundef null, ptr noundef %3)
  br i1 %38, label %50, label %39

39:                                               ; preds = %36
  store i16 -1, ptr %3, align 2
  br label %50

40:                                               ; preds = %33
  %41 = tail call i32 @strncmp(ptr noundef nonnull dereferenceable(1) %24, ptr noundef nonnull dereferenceable(11) @blf_parse_xml_port.simulated_magic, i64 noundef 10) #16
  %42 = icmp eq i32 %41, 0
  br i1 %42, label %43, label %50

43:                                               ; preds = %40
  %44 = tail call i64 @strlen(ptr noundef nonnull dereferenceable(1) %24) #16
  %45 = icmp ugt i64 %44, 10
  br i1 %45, label %46, label %50

46:                                               ; preds = %43
  %47 = getelementptr i8, ptr %24, i64 10
  %48 = load i8, ptr %47, align 1
  %.not49 = icmp eq i8 %48, 48
  br i1 %.not49, label %50, label %49

49:                                               ; preds = %46
  store i8 1, ptr %4, align 1
  br label %50

50:                                               ; preds = %30, %27, %40, %49, %46, %43, %36, %39
  %51 = add i32 %.057, 1
  %52 = sext i32 %51 to i64
  %53 = getelementptr ptr, ptr %20, i64 %52
  %54 = load ptr, ptr %53, align 8
  %.not48 = icmp eq ptr %54, null
  br i1 %.not48, label %._crit_edge, label %.lr.ph, !llvm.loop !18

55:                                               ; preds = %16, %9, %5, %._crit_edge
  %.041 = phi i1 [ true, %._crit_edge ], [ false, %5 ], [ false, %9 ], [ false, %16 ]
  ret i1 %.041
}